target datalayout = "e-m:e-p270:32:32-p271:32:32-p272:64:64-i64:64-i128:128-f80:128-n8:16:32:64-S128"
target triple = "x86_64-pc-linux-gnu"

%struct.GCRef = type { i64 }

; Function Attrs: alwaysinline nounwind uwtable
define internal i32 @itype2irt(ptr noundef %0) #3 {
  %2 = alloca i32, align 4
  %3 = alloca ptr, align 8
  store ptr %0, ptr %3, align 8, !tbaa !11
  %4 = load ptr, ptr %3, align 8, !tbaa !11
  %5 = load i64, ptr %4, align 8, !tbaa !15
  %6 = ashr i64 %5, 47
  %7 = trunc i64 %6 to i32
  %8 = icmp ult i32 %7, -14
  br i1 %8, label %9, label %10

9:                                                ; preds = %1
  store i32 14, ptr %2, align 4
  br label %16

10:                                               ; preds = %1
  %11 = load ptr, ptr %3, align 8, !tbaa !11
  %12 = load i64, ptr %11, align 8, !tbaa !15
  %13 = ashr i64 %12, 47
  %14 = trunc i64 %13 to i32
  %15 = xor i32 %14, -1
  store i32 %15, ptr %2, align 4
  br label %16

16:                                               ; preds = %10, %9
  %17 = load i32, ptr %2, align 4
  ret i32 %17
}

; Function Attrs: nounwind uwtable
define hidden i32 @lj_record_constify(ptr noundef %0, ptr noundef %1) #0 {
  %3 = alloca i32, align 4
  %4 = alloca ptr, align 8
  %5 = alloca ptr, align 8
  store ptr %0, ptr %4, align 8, !tbaa !4
  store ptr %1, ptr %5, align 8, !tbaa !11
  %6 = load ptr, ptr %5, align 8, !tbaa !11
  %7 = load i64, ptr %6, align 8, !tbaa !15
  %8 = ashr i64 %7, 47
  %9 = trunc i64 %8 to i32
  %10 = sub i32 %9, -4
  %11 = icmp ugt i32 %10, -10
  br i1 %11, label %12, label %22

12:                                               ; preds = %2
  %13 = load ptr, ptr %4, align 8, !tbaa !4
  %14 = load ptr, ptr %5, align 8, !tbaa !11
  %15 = getelementptr inbounds nuw %struct.GCRef, ptr %14, i32 0, i32 0
  %16 = load i64, ptr %15, align 8, !tbaa !15
  %17 = and i64 %16, 140737488355327
  %18 = inttoptr i64 %17 to ptr
  %19 = load ptr, ptr %5, align 8, !tbaa !11
  %20 = call i32 @itype2irt(ptr noundef %19)
  %21 = call i32 @lj_ir_kgc(ptr noundef %13, ptr noundef %18, i32 noundef %20)
  store i32 %21, ptr %3, align 4
  br label %54

22:                                               ; preds = %2
  %23 = load ptr, ptr %5, align 8, !tbaa !11
  %24 = load i64, ptr %23, align 8, !tbaa !15
  %25 = ashr i64 %24, 47
  %26 = trunc i64 %25 to i32
  %27 = icmp ult i32 %26, -14
  br i1 %27, label %28, label %33

28:                                               ; preds = %22
  %29 = load ptr, ptr %4, align 8, !tbaa !4
  %30 = load ptr, ptr %5, align 8, !tbaa !11
  %31 = load double, ptr %30, align 8, !tbaa !15
  %32 = call i32 @lj_ir_knumint(ptr noundef %29, double noundef %31)
  store i32 %32, ptr %3, align 4
  br label %54

33:                                               ; preds = %22
  %34 = load ptr, ptr %5, align 8, !tbaa !11
  %35 = load i64, ptr %34, align 8, !tbaa !15
  %36 = ashr i64 %35, 47
  %37 = trunc i64 %36 to i32
  %38 = icmp eq i32 %37, -2
  br i1 %38, label %45, label %39

39:                                               ; preds = %33
  %40 = load ptr, ptr %5, align 8, !tbaa !11
  %41 = load i64, ptr %40, align 8, !tbaa !15
  %42 = ashr i64 %41, 47
  %43 = trunc i64 %42 to i32
  %44 = icmp eq i32 %43, -3
  br i1 %44, label %45, label %53

45:                                               ; preds = %39, %33
  %46 = load ptr, ptr %5, align 8, !tbaa !11
  %47 = call i32 @itype2irt(ptr noundef %46)
  %48 = sub i32 32767, %47
  %49 = load ptr, ptr %5, align 8, !tbaa !11
  %50 = call i32 @itype2irt(ptr noundef %49)
  %51 = shl i32 %50, 24
  %52 = add i32 %48, %51
  store i32 %52, ptr %3, align 4
  br label %54

53:                                               ; preds = %39
  store i32 0, ptr %3, align 4
  br label %54

54:                                               ; preds = %53, %45, %28, %12
  %55 = load i32, ptr %3, align 4
  ret i32 %55
}