; Function Attrs: nounwind uwtable
define hidden i32 @lj_record_constify(ptr noundef %0, ptr noundef readonly captures(none) %1) local_unnamed_addr #0 {
  %3 = load i64, ptr %1, align 8
  %4 = ashr i64 %3, 47
  %5 = trunc nsw i64 %4 to i32
  %6 = add nsw i32 %5, 13
  %7 = icmp ult i32 %6, 9
  %8 = bitcast i64 %3 to double
  br i1 %7, label %9, label %15

9:                                                ; preds = %2
  %10 = and i64 %3, 140737488355327
  %11 = inttoptr i64 %10 to ptr
  %12 = icmp ult i64 %4, -14
  %13 = xor i32 %5, -1
  %.0.i = select i1 %12, i32 14, i32 %13
  %14 = tail call i32 @lj_ir_kgc(ptr noundef %0, ptr noundef %11, i32 noundef %.0.i) #8
  br label %24

15:                                               ; preds = %2
  %16 = icmp ult i64 %4, -14
  br i1 %16, label %17, label %19

17:                                               ; preds = %15
  %18 = tail call i32 @lj_ir_knumint(ptr noundef %0, double noundef %8) #8
  br label %24

19:                                               ; preds = %15
  %.off = add nsw i64 %4, 3
  %switch = icmp ult i64 %.off, 2
  br i1 %switch, label %20, label %24

20:                                               ; preds = %19
  %21 = xor i32 %5, -1
  %22 = mul nuw nsw i32 %21, 16777217
  %23 = xor i32 %22, 32767
  br label %24

24:                                               ; preds = %19, %20, %17, %9
  %.0 = phi i32 [ %14, %9 ], [ %18, %17 ], [ %23, %20 ], [ 0, %19 ]
  ret i32 %.0
}